(dp0
I800
F35.77139711380005
sI450
F20.756441116333008
sI100
F8.110783815383911
sI950
F39.651423931121826
sI550
F24.782973051071167
sI200
F9.843168020248413
sI650
F30.200191020965576
sI300
F15.378558158874512
sI850
F38.597902059555054
sI750
F33.98669099807739
sI400
F18.6689190864563
sI50
F4.543102979660034
sI500
F23.40636396408081
sI150
F7.896391153335571
sI600
F28.09450602531433
sI900
F39.797731161117554
sI250
F13.372865915298462
sI700
F31.662366151809692
sI350
F16.963040113449097
s.